; Function Attrs: mustprogress uwtable
define void @_ZN7testing8internal26BriefUnitTestResultPrinter16OnTestPartResultERKNS_14TestPartResultE(ptr nonnull readnone align 8 captures(none) %0, ptr noundef nonnull readonly align 8 captures(none) dereferenceable(112) %1) unnamed_addr #3 align 2 personality ptr @__gxx_personality_v0 {
  %3 = alloca %"class.std::__cxx11::basic_string", align 8
  %4 = load i32, ptr %1, align 8, !tbaa !604
  %cond = icmp eq i32 %4, 0
  br i1 %cond, label %19, label %5

5:                                                ; preds = %2
  call void @llvm.lifetime.start.p0(i64 32, ptr nonnull %3) #57
  call fastcc void @_ZN7testing8internalL27PrintTestPartResultToStringB5cxx11ERKNS_14TestPartResultE(ptr dead_on_unwind noalias writable align 8 %3, ptr noundef nonnull readonly align 8 dereferenceable(112) %1)
  %6 = load ptr, ptr %3, align 8, !tbaa !22
  %puts.i = call i32 @puts(ptr nonnull dereferenceable(1) %6)
  %7 = load ptr, ptr @stdout, align 8, !tbaa !145
  %8 = call i32 @fflush(ptr noundef %7)
  %9 = load ptr, ptr %3, align 8, !tbaa !22
  %10 = getelementptr inbounds nuw i8, ptr %3, i64 16
  %11 = icmp eq ptr %9, %10
  br i1 %11, label %_ZNKSt7__cxx1112basic_stringIcSt11char_traitsIcESaIcEE11_M_is_localEv.exit.thread.i.i.i, label %_ZNKSt7__cxx1112basic_stringIcSt11char_traitsIcESaIcEE11_M_is_localEv.exit.i.i.i

_ZNKSt7__cxx1112basic_stringIcSt11char_traitsIcESaIcEE11_M_is_localEv.exit.thread.i.i.i: ; preds = %5
  %12 = getelementptr inbounds nuw i8, ptr %3, i64 8
  %13 = load i64, ptr %12, align 8, !tbaa !25
  %14 = icmp ult i64 %13, 16
  call void @llvm.assume(i1 %14)
  br label %_ZN7testing8internalL19PrintTestPartResultERKNS_14TestPartResultE.exit

_ZNKSt7__cxx1112basic_stringIcSt11char_traitsIcESaIcEE11_M_is_localEv.exit.i.i.i: ; preds = %5
  %15 = load i64, ptr %10, align 8, !tbaa !27
  %16 = add i64 %15, 1
  call void @_ZdlPvm(ptr noundef %9, i64 noundef %16) #58
  br label %_ZN7testing8internalL19PrintTestPartResultERKNS_14TestPartResultE.exit

_ZN7testing8internalL19PrintTestPartResultERKNS_14TestPartResultE.exit: ; preds = %_ZNKSt7__cxx1112basic_stringIcSt11char_traitsIcESaIcEE11_M_is_localEv.exit.thread.i.i.i, %_ZNKSt7__cxx1112basic_stringIcSt11char_traitsIcESaIcEE11_M_is_localEv.exit.i.i.i
  call void @llvm.lifetime.end.p0(i64 32, ptr nonnull %3) #57
  %17 = load ptr, ptr @stdout, align 8, !tbaa !145
  %18 = call i32 @fflush(ptr noundef %17)
  br label %19

19:                                               ; preds = %2, %_ZN7testing8internalL19PrintTestPartResultERKNS_14TestPartResultE.exit
  ret void
}